((lp0
(F75.5
F286.5
tp1
a(F142.5
F328.5
tp2
a(F150.0
F325.0
tp3
a(F168.0
F313.5
tp4
a(F198.5
F308.5
tp5
a(F146.5
F157.5
tp6
a(F534.5
F280.0
tp7
a(F422.0
F205.0
tp8
a(F306.5
F140.0
tp9
a(F296.0
F111.5
tp10
a(F381.0
F44.5
tp11
a(F234.0
F268.5
tp12
a(lp13
(F40.0
F274.5
tp14
a(F86.0
F329.5
tp15
a(F113.5
F322.0
tp16
a(F152.5
F305.5
tp17
a(F193.0
F301.0
tp18
a(F141.0
F142.5
tp19
a(F588.0
F266.0
tp20
a(F431.5
F191.0
tp21
a(F308.5
F124.0
tp22
a(F297.5
F93.0
tp23
a(F390.0
F15.5
tp24
a(F232.5
F258.0
tp25
atp26
.